(dp1
S'output'
p2
S"<type 'exceptions.NameError'> name 'Null' is not defined"
p3
sS'layer'
p4
S'C:\\Users\\Administrator\\Downloads\\web2py_win\\web2py\\applications\\Inw\\models\\0.py'
p5
sS'code'
p6
S'from gluon.tools import Mail\n# mail = Mail()\nEMAIL_SERVER = \'smtp.vinci-energies.net\'\nEMAIL_SENDER = Null\nEMAIL_LOGIN =  Null\n\n#Dzia\xc5\x82aj\xc4\x85ce !!!!!\n# EMAIL_SERVER = \'smtp.gmail.com:587\'\n# EMAIL_SENDER = \'m.mlynarczyk87@gmail.com\'\n# EMAIL_LOGIN = \'m.mlynarczyk87@gmail.com:masterve2015\'\n\n\n# EMAIL_SERVER = \'smtp.mandrillapp.com:587\'\n# EMAIL_SENDER = \'calantpi@o2.pl\'\n# EMAIL_LOGIN = \'calantpi@o2.pl:masterve2016\'\n# EMAIL_POLICY = \'deferred\' # or \'realtime\'\n\n#http://smtp.mandrillapp.com:587/\n#smtp.poczta.o2.pl:587\n\n# mail = Mail()\n#587 smtp \n# ##haslo: masterve2016\n\n#from gluon.tools import Mail\n# mail = Mail()\n# mail.settings.server = \'smtp.poczta.o2.pl:587\'\n# mail.settings.sender = \'calantpi@tlen.pl\'\n# mail.settings.login = \'calantpi@tlen.pl:masterve2016\'\n\n#def EdycjaSprzet():\n#     forma = SQLFORM(db.Dodaj_Sprzet)\n#     if forma.process().accepted:\n#         response.flash=\'Zapisano\'\n#         email = db.auth_user(forma.vars.assigned_to).email\n#         mail.settings.sender = EMAIL_SENDER\n#         mail.send(to=["m.mlynarczyk24@gazeta.pl"],\n#                   subject="Nowy sprzet dodany: %s" % forma.vars.Rodzaj_Sprzetu,\n#                   message=forma.vars.Model or\'Dodano nowy sprzet\'),\n#         redirect(URL(\'Sprzet\'))\n#     return dict(forma=forma)\n'
p7
sS'snapshot'
p8
(dp9
S'exception'
p10
(dp11
S'__hash__'
p12
S"<method-wrapper '__hash__' of exceptions.NameError object>"
p13
sS'__setattr__'
p14
S"<method-wrapper '__setattr__' of exceptions.NameError object>"
p15
sS'__reduce_ex__'
p16
S'<built-in method __reduce_ex__ of exceptions.NameError object>'
p17
sS'__getslice__'
p18
S"<method-wrapper '__getslice__' of exceptions.NameError object>"
p19
sS'__getitem__'
p20
S"<method-wrapper '__getitem__' of exceptions.NameError object>"
p21
sS'__setstate__'
p22
S'<built-in method __setstate__ of exceptions.NameError object>'
p23
sS'__reduce__'
p24
S'<built-in method __reduce__ of exceptions.NameError object>'
p25
sS'__str__'
p26
S"<method-wrapper '__str__' of exceptions.NameError object>"
p27
sS'__format__'
p28
S'<built-in method __format__ of exceptions.NameError object>'
p29
sS'__getattribute__'
p30
S"<method-wrapper '__getattribute__' of exceptions.NameError object>"
p31
sS'__class__'
p32
S"<type 'exceptions.NameError'>"
p33
sS'__unicode__'
p34
S'<built-in method __unicode__ of exceptions.NameError object>'
p35
sS'__delattr__'
p36
S"<method-wrapper '__delattr__' of exceptions.NameError object>"
p37
sS'__subclasshook__'
p38
S'<built-in method __subclasshook__ of type object>'
p39
sS'__repr__'
p40
S"<method-wrapper '__repr__' of exceptions.NameError object>"
p41
sS'args'
p42
S'("name \'Null\' is not defined",)'
p43
sS'__dict__'
p44
S'{}'
p45
sS'__sizeof__'
p46
S'<built-in method __sizeof__ of exceptions.NameError object>'
p47
sS'__doc__'
p48
S"'Name not found globally.'"
p49
sS'__init__'
p50
S"<method-wrapper '__init__' of exceptions.NameError object>"
p51
sS'__new__'
p52
S'<built-in method __new__ of type object>'
p53
ssS'evalue'
p54
S"name 'Null' is not defined"
p55
sS'request'
p56
cgluon.html
XML_unpickle
p57
(S's\x81d\x00\x00<div><table><tr><td style="font-weight:bold;vertical-align:top;">ajax</td><td style="vertical-align:top;">:</td><td><div>False</div></td></tr><tr><td style="font-weight:bold;vertical-align:top;">application</td><td style="vertical-align:top;">:</td><td><div>Inw</div></td></tr><tr><td style="font-weight:bold;vertical-align:top;">args</td><td style="vertical-align:top;">:</td><td><div><table></table></div></td></tr><tr><td style="font-weight:bold;vertical-align:top;">cid</td><td style="vertical-align:top;">:</td><td><div>None</div></td></tr><tr><td style="font-weight:bold;vertical-align:top;">client</td><td style="vertical-align:top;">:</td><td><div>127.0.0.1</div></td></tr><tr><td style="font-weight:bold;vertical-align:top;">controller</td><td style="vertical-align:top;">:</td><td><div>default</div></td></tr><tr><td style="font-weight:bold;vertical-align:top;">cookies</td><td style="vertical-align:top;">:</td><td><div><table><tr><td style="font-weight:bold;vertical-align:top;">session_id_admin</td><td style="vertical-align:top;">:</td><td><div>127.0.0.1-c4508038-fd0f-4f3c-9909-869b9a69d546<table><tr><td style="font-weight:bold;vertical-align:top;">comment</td><td style="vertical-align:top;">:</td><td><div></div></td></tr><tr><td style="font-weight:bold;vertical-align:top;">domain</td><td style="vertical-align:top;">:</td><td><div></div></td></tr><tr><td style="font-weight:bold;vertical-align:top;">expires</td><td style="vertical-align:top;">:</td><td><div></div></td></tr><tr><td style="font-weight:bold;vertical-align:top;">httponly</td><td style="vertical-align:top;">:</td><td><div></div></td></tr><tr><td style="font-weight:bold;vertical-align:top;">max-age</td><td style="vertical-align:top;">:</td><td><div></div></td></tr><tr><td style="font-weight:bold;vertical-align:top;">path</td><td style="vertical-align:top;">:</td><td><div></div></td></tr><tr><td style="font-weight:bold;vertical-align:top;">secure</td><td style="vertical-align:top;">:</td><td><div></div></td></tr><tr><td style="font-weight:bold;vertical-align:top;">version</td><td style="vertical-align:top;">:</td><td><div></div></td></tr></table></div></td></tr><tr><td style="font-weight:bold;vertical-align:top;">session_id_inw</td><td style="vertical-align:top;">:</td><td><div>127.0.0.1-4ed78f6f-5e27-4b34-9b40-800ef98f9b79<table><tr><td style="font-weight:bold;vertical-align:top;">comment</td><td style="vertical-align:top;">:</td><td><div></div></td></tr><tr><td style="font-weight:bold;vertical-align:top;">domain</td><td style="vertical-align:top;">:</td><td><div></div></td></tr><tr><td style="font-weight:bold;vertical-align:top;">expires</td><td style="vertical-align:top;">:</td><td><div></div></td></tr><tr><td style="font-weight:bold;vertical-align:top;">httponly</td><td style="vertical-align:top;">:</td><td><div></div></td></tr><tr><td style="font-weight:bold;vertical-align:top;">max-age</td><td style="vertical-align:top;">:</td><td><div></div></td></tr><tr><td style="font-weight:bold;vertical-align:top;">path</td><td style="vertical-align:top;">:</td><td><div></div></td></tr><tr><td style="font-weight:bold;vertical-align:top;">secure</td><td style="vertical-align:top;">:</td><td><div></div></td></tr><tr><td style="font-weight:bold;vertical-align:top;">version</td><td style="vertical-align:top;">:</td><td><div></div></td></tr></table></div></td></tr><tr><td style="font-weight:bold;vertical-align:top;">session_id_welcome</td><td style="vertical-align:top;">:</td><td><div>127.0.0.1-29e479f4-ed5c-409a-8877-40d13ee32728<table><tr><td style="font-weight:bold;vertical-align:top;">comment</td><td style="vertical-align:top;">:</td><td><div></div></td></tr><tr><td style="font-weight:bold;vertical-align:top;">domain</td><td style="vertical-align:top;">:</td><td><div></div></td></tr><tr><td style="font-weight:bold;vertical-align:top;">expires</td><td style="vertical-align:top;">:</td><td><div></div></td></tr><tr><td style="font-weight:bold;vertical-align:top;">httponly</td><td style="vertical-align:top;">:</td><td><div></div></td></tr><tr><td style="font-weight:bold;vertical-align:top;">max-age</td><td style="vertical-align:top;">:</td><td><div></div></td></tr><tr><td style="font-weight:bold;vertical-align:top;">path</td><td style="vertical-align:top;">:</td><td><div></div></td></tr><tr><td style="font-weight:bold;vertical-align:top;">secure</td><td style="vertical-align:top;">:</td><td><div></div></td></tr><tr><td style="font-weight:bold;vertical-align:top;">version</td><td style="vertical-align:top;">:</td><td><div></div></td></tr></table></div></td></tr></table></div></td></tr><tr><td style="font-weight:bold;vertical-align:top;">env</td><td style="vertical-align:top;">:</td><td><div><table><tr><td style="font-weight:bold;vertical-align:top;">CONTENT_LENGTH</td><td style="vertical-align:top;">:</td><td><div>1717</div></td></tr><tr><td style="font-weight:bold;vertical-align:top;">CONTENT_TYPE</td><td style="vertical-align:top;">:</td><td><div>multipart/form-data; boundary=---------------------------224421698418734</div></td></tr><tr><td style="font-weight:bold;vertical-align:top;">HTTP_ACCEPT</td><td style="vertical-align:top;">:</td><td><div>text/html,application/xhtml+xml,application/xml;q=0.9,*/*;q=0.8</div></td></tr><tr><td style="font-weight:bold;vertical-align:top;">HTTP_ACCEPT_ENCODING</td><td style="vertical-align:top;">:</td><td><div>gzip, deflate</div></td></tr><tr><td style="font-weight:bold;vertical-align:top;">HTTP_ACCEPT_LANGUAGE</td><td style="vertical-align:top;">:</td><td><div>pl,en-US;q=0.7,en;q=0.3</div></td></tr><tr><td style="font-weight:bold;vertical-align:top;">HTTP_CACHE_CONTROL</td><td style="vertical-align:top;">:</td><td><div>max-age=0</div></td></tr><tr><td style="font-weight:bold;vertical-align:top;">HTTP_CONNECTION</td><td style="vertical-align:top;">:</td><td><div>keep-alive</div></td></tr><tr><td style="font-weight:bold;vertical-align:top;">HTTP_CONTENT_LENGTH</td><td style="vertical-align:top;">:</td><td><div>1717</div></td></tr><tr><td style="font-weight:bold;vertical-align:top;">HTTP_CONTENT_TYPE</td><td style="vertical-align:top;">:</td><td><div>multipart/form-data; boundary=---------------------------224421698418734</div></td></tr><tr><td style="font-weight:bold;vertical-align:top;">HTTP_COOKIE</td><td style="vertical-align:top;">:</td><td><div>session_id_welcome=127.0.0.1-29e479f4-ed5c-409a-8877-40d13ee32728; session_id_admin=127.0.0.1-c4508038-fd0f-4f3c-9909-869b9a69d546; session_id_inw=127.0.0.1-4ed78f6f-5e27-4b34-9b40-800ef98f9b79</div></td></tr><tr><td style="font-weight:bold;vertical-align:top;">HTTP_HOST</td><td style="vertical-align:top;">:</td><td><div>127.0.0.1:8000</div></td></tr><tr><td style="font-weight:bold;vertical-align:top;">HTTP_REFERER</td><td style="vertical-align:top;">:</td><td><div>http://127.0.0.1:8000/Inw/default/EdycjaSprzet</div></td></tr><tr><td style="font-weight:bold;vertical-align:top;">HTTP_USER_AGENT</td><td style="vertical-align:top;">:</td><td><div>Mozilla/5.0 (Windows NT 6.1; WOW64; rv:43.0) Gecko/20100101 Firefox/43.0</div></td></tr><tr><td style="font-weight:bold;vertical-align:top;">PATH_INFO</td><td style="vertical-align:top;">:</td><td><div>/Inw/default/EdycjaSprzet</div></td></tr><tr><td style="font-weight:bold;vertical-align:top;">QUERY_STRING</td><td style="vertical-align:top;">:</td><td><div></div></td></tr><tr><td style="font-weight:bold;vertical-align:top;">REMOTE_ADDR</td><td style="vertical-align:top;">:</td><td><div>127.0.0.1</div></td></tr><tr><td style="font-weight:bold;vertical-align:top;">REMOTE_PORT</td><td style="vertical-align:top;">:</td><td><div>58549</div></td></tr><tr><td style="font-weight:bold;vertical-align:top;">REQUEST_METHOD</td><td style="vertical-align:top;">:</td><td><div>POST</div></td></tr><tr><td style="font-weight:bold;vertical-align:top;">SCRIPT_NAME</td><td style="vertical-align:top;">:</td><td><div></div></td></tr><tr><td style="font-weight:bold;vertical-align:top;">SERVER_NAME</td><td style="vertical-align:top;">:</td><td><div>040waw11</div></td></tr><tr><td style="font-weight:bold;vertical-align:top;">SERVER_PORT</td><td style="vertical-align:top;">:</td><td><div>8000</div></td></tr><tr><td style="font-weight:bold;vertical-align:top;">SERVER_PROTOCOL</td><td style="vertical-align:top;">:</td><td><div>HTTP/1.1</div></td></tr><tr><td style="font-weight:bold;vertical-align:top;">SERVER_SOFTWARE</td><td style="vertical-align:top;">:</td><td><div>Rocket 1.2.6</div></td></tr><tr><td style="font-weight:bold;vertical-align:top;">app_folders</td><td style="vertical-align:top;">:</td><td><div>set([&#x27;C:\\\\Users\\\\Administrator\\\\Downloads\\\\web2py_win\\\\web2py\\\\applications\\\\tpi_nieobecnosci\\\\&#x27;, &#x27;C:\\\\Users\\\\Administrator\\\\Downloads\\\\web2py_win\\\\web2py\\\\applications\\\\admin\\\\&#x27;, &#x27;C:\\\\Users\\\\Administrator\\\\Downloads\\\\web2py_win\\\\web2py\\\\applications\\\\welcome\\\\&#x27;, &#x27;C:\\\\Users\\\\Administrator\\\\Downloads\\\\web2py_win\\\\web2py\\\\applications\\\\Inw\\\\&#x27;])</div></td></tr><tr><td style="font-weight:bold;vertical-align:top;">applications_parent</td><td style="vertical-align:top;">:</td><td><div>C:\\Users\\Administrator\\Downloads\\web2py_win\\web2py</div></td></tr><tr><td style="font-weight:bold;vertical-align:top;">cmd_args</td><td style="vertical-align:top;">:</td><td><div><table></table></div></td></tr><tr><td style="font-weight:bold;vertical-align:top;">cmd_options</td><td style="vertical-align:top;">:</td><td><div>&lt;Values at 0x33b0648: {&#x27;verbose&#x27;: False, &#x27;ip&#x27;: &#x27;127.0.0.1&#x27;, &#x27;debuglevel&#x27;: 30, &#x27;with_scheduler&#x27;: False, &#x27;ips&#x27;: [&#x27;fe80::c882:de63:39a2:22f3%12&#x27;, &#x27;10.186.64.36&#x27;], &#x27;shutdown_timeout&#x27;: 5, &#x27;taskbar&#x27;: False, &#x27;with_coverage&#x27;: False, &#x27;scheduler_groups&#x27;: None, &#x27;port&#x27;: 8000, &#x27;maxthreads&#x27;: None, &#x27;softcron&#x27;: False, &#x27;server_name&#x27;: &#x27;040waw11&#x27;, &#x27;bpython&#x27;: False, &#x27;nogui&#x27;: False, &#x27;pid_filename&#x27;: &#x27;httpserver.pid&#x27;, &#x27;print_errors&#x27;: False, &#x27;extcron&#x27;: False, &#x27;runcron&#x27;: False, &#x27;run_system_tests&#x27;: False, &#x27;test&#x27;: None, &#x27;folder&#x27;: &#x27;C:\\\\Users\\\\Administrator\\\\Downloads\\\\web2py_win\\\\web2py&#x27;, &#x27;config&#x27;: &#x27;&#x27;, &#x27;minthreads&#x27;: None, &#x27;shell&#x27;: None, &#x27;run&#x27;: &#x27;&#x27;, &#x27;log_filename&#x27;: &#x27;httpserver.log&#x27;, &#x27;profiler_dir&#x27;: None, &#x27;args&#x27;: [&#x27;&#x27;], &#x27;socket_timeout&#x27;: 5, &#x27;ssl_ca_certificate&#x27;: None, &#x27;scheduler&#x27;: None, &#x27;interfaces&#x27;: None, &#x27;ssl_private_key&#x27;: &#x27;&#x27;, &#x27;gae&#x27;: None, &#x27;password&#x27;: &#x27;&lt;ask&gt;&#x27;, &#x27;request_queue_size&#x27;: 5, &#x27;ssl_certificate&#x27;: &#x27;&#x27;, &#x27;cronjob&#x27;: False, &#x27;numthreads&#x27;: None, &#x27;quiet&#x27;: False, &#x27;import_models&#x27;: False, &#x27;timeout&#x27;: 10, &#x27;plain&#x27;: False, &#x27;nobanner&#x27;: False}&gt;</div></td></tr><tr><td style="font-weight:bold;vertical-align:top;">content_length</td><td style="vertical-align:top;">:</td><td><div>1717</div></td></tr><tr><td style="font-weight:bold;vertical-align:top;">content_type</td><td style="vertical-align:top;">:</td><td><div>multipart/form-data; boundary=---------------------------224421698418734</div></td></tr><tr><td style="font-weight:bold;vertical-align:top;">db_sessions</td><td style="vertical-align:top;">:</td><td><div>set([])</div></td></tr><tr><td style="font-weight:bold;vertical-align:top;">debugging</td><td style="vertical-align:top;">:</td><td><div>True</div></td></tr><tr><td style="font-weight:bold;vertical-align:top;">gluon_parent</td><td style="vertical-align:top;">:</td><td><div>C:\\Users\\Administrator\\Downloads\\web2py_win\\web2py</div></td></tr><tr><td style="font-weight:bold;vertical-align:top;">http_accept</td><td style="vertical-align:top;">:</td><td><div>text/html,application/xhtml+xml,application/xml;q=0.9,*/*;q=0.8</div></td></tr><tr><td style="font-weight:bold;vertical-align:top;">http_accept_encoding</td><td style="vertical-align:top;">:</td><td><div>gzip, deflate</div></td></tr><tr><td style="font-weight:bold;vertical-align:top;">http_accept_language</td><td style="vertical-align:top;">:</td><td><div>pl,en-US;q=0.7,en;q=0.3</div></td></tr><tr><td style="font-weight:bold;vertical-align:top;">http_cache_control</td><td style="vertical-align:top;">:</td><td><div>max-age=0</div></td></tr><tr><td style="font-weight:bold;vertical-align:top;">http_connection</td><td style="vertical-align:top;">:</td><td><div>keep-alive</div></td></tr><tr><td style="font-weight:bold;vertical-align:top;">http_content_length</td><td style="vertical-align:top;">:</td><td><div>1717</div></td></tr><tr><td style="font-weight:bold;vertical-align:top;">http_content_type</td><td style="vertical-align:top;">:</td><td><div>multipart/form-data; boundary=---------------------------224421698418734</div></td></tr><tr><td style="font-weight:bold;vertical-align:top;">http_cookie</td><td style="vertical-align:top;">:</td><td><div>session_id_welcome=127.0.0.1-29e479f4-ed5c-409a-8877-40d13ee32728; session_id_admin=127.0.0.1-c4508038-fd0f-4f3c-9909-869b9a69d546; session_id_inw=127.0.0.1-4ed78f6f-5e27-4b34-9b40-800ef98f9b79</div></td></tr><tr><td style="font-weight:bold;vertical-align:top;">http_host</td><td style="vertical-align:top;">:</td><td><div>127.0.0.1:8000</div></td></tr><tr><td style="font-weight:bold;vertical-align:top;">http_referer</td><td style="vertical-align:top;">:</td><td><div>http://127.0.0.1:8000/Inw/default/EdycjaSprzet</div></td></tr><tr><td style="font-weight:bold;vertical-align:top;">http_user_agent</td><td style="vertical-align:top;">:</td><td><div>Mozilla/5.0 (Windows NT 6.1; WOW64; rv:43.0) Gecko/20100101 Firefox/43.0</div></td></tr><tr><td style="font-weight:bold;vertical-align:top;">is_jython</td><td style="vertical-align:top;">:</td><td><div>False</div></td></tr><tr><td style="font-weight:bold;vertical-align:top;">is_pypy</td><td style="vertical-align:top;">:</td><td><div>False</div></td></tr><tr><td style="font-weight:bold;vertical-align:top;">is_source</td><td style="vertical-align:top;">:</td><td><div>False</div></td></tr><tr><td style="font-weight:bold;vertical-align:top;">local_hosts</td><td style="vertical-align:top;">:</td><td><div><table><tr><td><div>10.186.64.36</div></td></tr><tr><td><div>fe80::c882:de63:39a2:22f3%12</div></td></tr><tr><td><div>::ffff:127.0.0.1</div></td></tr><tr><td><div>::1</div></td></tr><tr><td><div>040waw11</div></td></tr><tr><td><div>040waw11.tpipl.tpi-op.pl</div></td></tr><tr><td><div>127.0.0.1</div></td></tr></table></div></td></tr><tr><td style="font-weight:bold;vertical-align:top;">path_info</td><td style="vertical-align:top;">:</td><td><div>/Inw/default/EdycjaSprzet</div></td></tr><tr><td style="font-weight:bold;vertical-align:top;">query_string</td><td style="vertical-align:top;">:</td><td><div></div></td></tr><tr><td style="font-weight:bold;vertical-align:top;">remote_addr</td><td style="vertical-align:top;">:</td><td><div>127.0.0.1</div></td></tr><tr><td style="font-weight:bold;vertical-align:top;">remote_port</td><td style="vertical-align:top;">:</td><td><div>58549</div></td></tr><tr><td style="font-weight:bold;vertical-align:top;">request_method</td><td style="vertical-align:top;">:</td><td><div>POST</div></td></tr><tr><td style="font-weight:bold;vertical-align:top;">request_uri</td><td style="vertical-align:top;">:</td><td><div>/Inw/default/EdycjaSprzet</div></td></tr><tr><td style="font-weight:bold;vertical-align:top;">script_name</td><td style="vertical-align:top;">:</td><td><div></div></td></tr><tr><td style="font-weight:bold;vertical-align:top;">server_name</td><td style="vertical-align:top;">:</td><td><div>040waw11</div></td></tr><tr><td style="font-weight:bold;vertical-align:top;">server_port</td><td style="vertical-align:top;">:</td><td><div>8000</div></td></tr><tr><td style="font-weight:bold;vertical-align:top;">server_protocol</td><td style="vertical-align:top;">:</td><td><div>HTTP/1.1</div></td></tr><tr><td style="font-weight:bold;vertical-align:top;">server_software</td><td style="vertical-align:top;">:</td><td><div>Rocket 1.2.6</div></td></tr><tr><td style="font-weight:bold;vertical-align:top;">web2py_path</td><td style="vertical-align:top;">:</td><td><div>C:\\Users\\Administrator\\Downloads\\web2py_win\\web2py</div></td></tr><tr><td style="font-weight:bold;vertical-align:top;">web2py_version</td><td style="vertical-align:top;">:</td><td><div>2.12.3-stable+timestamp.2015.08.19.00.18.03</div></td></tr><tr><td style="font-weight:bold;vertical-align:top;">wsgi.errors</td><td style="vertical-align:top;">:</td><td><div>&lt;open file &#x27;&lt;stderr&gt;&#x27;, mode &#x27;w&#x27; at 0x01EFD0D0&gt;</div></td></tr><tr><td style="font-weight:bold;vertical-align:top;">wsgi.file_wrapper</td><td style="vertical-align:top;">:</td><td><div>&lt;class wsgiref.util.FileWrapper at 0x032229D0&gt;</div></td></tr><tr><td style="font-weight:bold;vertical-align:top;">wsgi.input</td><td style="vertical-align:top;">:</td><td><div>&lt;socket._fileobject object at 0x04C66E70&gt;</div></td></tr><tr><td style="font-weight:bold;vertical-align:top;">wsgi.multiprocess</td><td style="vertical-align:top;">:</td><td><div>False</div></td></tr><tr><td style="font-weight:bold;vertical-align:top;">wsgi.multithread</td><td style="vertical-align:top;">:</td><td><div>True</div></td></tr><tr><td style="font-weight:bold;vertical-align:top;">wsgi.run_once</td><td style="vertical-align:top;">:</td><td><div>False</div></td></tr><tr><td style="font-weight:bold;vertical-align:top;">wsgi.url_scheme</td><td style="vertical-align:top;">:</td><td><div>http</div></td></tr><tr><td style="font-weight:bold;vertical-align:top;">wsgi.version</td><td style="vertical-align:top;">:</td><td><div><table><tr><td><div>1</div></td></tr><tr><td><div>0</div></td></tr></table></div></td></tr><tr><td style="font-weight:bold;vertical-align:top;">wsgi_errors</td><td style="vertical-align:top;">:</td><td><div>&lt;open file &#x27;&lt;stderr&gt;&#x27;, mode &#x27;w&#x27; at 0x01EFD0D0&gt;</div></td></tr><tr><td style="font-weight:bold;vertical-align:top;">wsgi_file_wrapper</td><td style="vertical-align:top;">:</td><td><div>&lt;class wsgiref.util.FileWrapper at 0x032229D0&gt;</div></td></tr><tr><td style="font-weight:bold;vertical-align:top;">wsgi_input</td><td style="vertical-align:top;">:</td><td><div>&lt;socket._fileobject object at 0x04C66E70&gt;</div></td></tr><tr><td style="font-weight:bold;vertical-align:top;">wsgi_multiprocess</td><td style="vertical-align:top;">:</td><td><div>False</div></td></tr><tr><td style="font-weight:bold;vertical-align:top;">wsgi_multithread</td><td style="vertical-align:top;">:</td><td><div>True</div></td></tr><tr><td style="font-weight:bold;vertical-align:top;">wsgi_run_once</td><td style="vertical-align:top;">:</td><td><div>False</div></td></tr><tr><td style="font-weight:bold;vertical-align:top;">wsgi_url_scheme</td><td style="vertical-align:top;">:</td><td><div>http</div></td></tr><tr><td style="font-weight:bold;vertical-align:top;">wsgi_version</td><td style="vertical-align:top;">:</td><td><div><table><tr><td><div>1</div></td></tr><tr><td><div>0</div></td></tr></table></div></td></tr></table></div></td></tr><tr><td style="font-weight:bold;vertical-align:top;">extension</td><td style="vertical-align:top;">:</td><td><div>html</div></td></tr><tr><td style="font-weight:bold;vertical-align:top;">folder</td><td style="vertical-align:top;">:</td><td><div>C:\\Users\\Administrator\\Downloads\\web2py_win\\web2py\\applications\\Inw\\</div></td></tr><tr><td style="font-weight:bold;vertical-align:top;">function</td><td style="vertical-align:top;">:</td><td><div>EdycjaSprzet</div></td></tr><tr><td style="font-weight:bold;vertical-align:top;">global_settings</td><td style="vertical-align:top;">:</td><td><div><table><tr><td style="font-weight:bold;vertical-align:top;">app_folders</td><td style="vertical-align:top;">:</td><td><div>set([&#x27;C:\\\\Users\\\\Administrator\\\\Downloads\\\\web2py_win\\\\web2py\\\\applications\\\\tpi_nieobecnosci\\\\&#x27;, &#x27;C:\\\\Users\\\\Administrator\\\\Downloads\\\\web2py_win\\\\web2py\\\\applications\\\\admin\\\\&#x27;, &#x27;C:\\\\Users\\\\Administrator\\\\Downloads\\\\web2py_win\\\\web2py\\\\applications\\\\welcome\\\\&#x27;, &#x27;C:\\\\Users\\\\Administrator\\\\Downloads\\\\web2py_win\\\\web2py\\\\applications\\\\Inw\\\\&#x27;])</div></td></tr><tr><td style="font-weight:bold;vertical-align:top;">applications_parent</td><td style="vertical-align:top;">:</td><td><div>C:\\Users\\Administrator\\Downloads\\web2py_win\\web2py</div></td></tr><tr><td style="font-weight:bold;vertical-align:top;">cmd_args</td><td style="vertical-align:top;">:</td><td><div><table></table></div></td></tr><tr><td style="font-weight:bold;vertical-align:top;">cmd_options</td><td style="vertical-align:top;">:</td><td><div>&lt;Values at 0x33b0648: {&#x27;verbose&#x27;: False, &#x27;ip&#x27;: &#x27;127.0.0.1&#x27;, &#x27;debuglevel&#x27;: 30, &#x27;with_scheduler&#x27;: False, &#x27;ips&#x27;: [&#x27;fe80::c882:de63:39a2:22f3%12&#x27;, &#x27;10.186.64.36&#x27;], &#x27;shutdown_timeout&#x27;: 5, &#x27;taskbar&#x27;: False, &#x27;with_coverage&#x27;: False, &#x27;scheduler_groups&#x27;: None, &#x27;port&#x27;: 8000, &#x27;maxthreads&#x27;: None, &#x27;softcron&#x27;: False, &#x27;server_name&#x27;: &#x27;040waw11&#x27;, &#x27;bpython&#x27;: False, &#x27;nogui&#x27;: False, &#x27;pid_filename&#x27;: &#x27;httpserver.pid&#x27;, &#x27;print_errors&#x27;: False, &#x27;extcron&#x27;: False, &#x27;runcron&#x27;: False, &#x27;run_system_tests&#x27;: False, &#x27;test&#x27;: None, &#x27;folder&#x27;: &#x27;C:\\\\Users\\\\Administrator\\\\Downloads\\\\web2py_win\\\\web2py&#x27;, &#x27;config&#x27;: &#x27;&#x27;, &#x27;minthreads&#x27;: None, &#x27;shell&#x27;: None, &#x27;run&#x27;: &#x27;&#x27;, &#x27;log_filename&#x27;: &#x27;httpserver.log&#x27;, &#x27;profiler_dir&#x27;: None, &#x27;args&#x27;: [&#x27;&#x27;], &#x27;socket_timeout&#x27;: 5, &#x27;ssl_ca_certificate&#x27;: None, &#x27;scheduler&#x27;: None, &#x27;interfaces&#x27;: None, &#x27;ssl_private_key&#x27;: &#x27;&#x27;, &#x27;gae&#x27;: None, &#x27;password&#x27;: &#x27;&lt;ask&gt;&#x27;, &#x27;request_queue_size&#x27;: 5, &#x27;ssl_certificate&#x27;: &#x27;&#x27;, &#x27;cronjob&#x27;: False, &#x27;numthreads&#x27;: None, &#x27;quiet&#x27;: False, &#x27;import_models&#x27;: False, &#x27;timeout&#x27;: 10, &#x27;plain&#x27;: False, &#x27;nobanner&#x27;: False}&gt;</div></td></tr><tr><td style="font-weight:bold;vertical-align:top;">db_sessions</td><td style="vertical-align:top;">:</td><td><div>set([])</div></td></tr><tr><td style="font-weight:bold;vertical-align:top;">debugging</td><td style="vertical-align:top;">:</td><td><div>True</div></td></tr><tr><td style="font-weight:bold;vertical-align:top;">gluon_parent</td><td style="vertical-align:top;">:</td><td><div>C:\\Users\\Administrator\\Downloads\\web2py_win\\web2py</div></td></tr><tr><td style="font-weight:bold;vertical-align:top;">is_jython</td><td style="vertical-align:top;">:</td><td><div>False</div></td></tr><tr><td style="font-weight:bold;vertical-align:top;">is_pypy</td><td style="vertical-align:top;">:</td><td><div>False</div></td></tr><tr><td style="font-weight:bold;vertical-align:top;">is_source</td><td style="vertical-align:top;">:</td><td><div>False</div></td></tr><tr><td style="font-weight:bold;vertical-align:top;">local_hosts</td><td style="vertical-align:top;">:</td><td><div><table><tr><td><div>10.186.64.36</div></td></tr><tr><td><div>fe80::c882:de63:39a2:22f3%12</div></td></tr><tr><td><div>::ffff:127.0.0.1</div></td></tr><tr><td><div>::1</div></td></tr><tr><td><div>040waw11</div></td></tr><tr><td><div>040waw11.tpipl.tpi-op.pl</div></td></tr><tr><td><div>127.0.0.1</div></td></tr></table></div></td></tr><tr><td style="font-weight:bold;vertical-align:top;">web2py_version</td><td style="vertical-align:top;">:</td><td><div>2.12.3-stable+timestamp.2015.08.19.00.18.03</div></td></tr></table></div></td></tr><tr><td style="font-weight:bold;vertical-align:top;">is_https</td><td style="vertical-align:top;">:</td><td><div>False</div></td></tr><tr><td style="font-weight:bold;vertical-align:top;">is_local</td><td style="vertical-align:top;">:</td><td><div>True</div></td></tr><tr><td style="font-weight:bold;vertical-align:top;">is_restful</td><td style="vertical-align:top;">:</td><td><div>False</div></td></tr><tr><td style="font-weight:bold;vertical-align:top;">is_sheduler</td><td style="vertical-align:top;">:</td><td><div>None</div></td></tr><tr><td style="font-weight:bold;vertical-align:top;">is_shell</td><td style="vertical-align:top;">:</td><td><div>None</div></td></tr><tr><td style="font-weight:bold;vertical-align:top;">now</td><td style="vertical-align:top;">:</td><td><div>datetime.datetime(2016, 2, 3, 11, 15, 56, 188000)</div></td></tr><tr><td style="font-weight:bold;vertical-align:top;">raw_args</td><td style="vertical-align:top;">:</td><td><div></div></td></tr><tr><td style="font-weight:bold;vertical-align:top;">raw_extension</td><td style="vertical-align:top;">:</td><td><div>None</div></td></tr><tr><td style="font-weight:bold;vertical-align:top;">url</td><td style="vertical-align:top;">:</td><td><div>/Inw/default/EdycjaSprzet</div></td></tr><tr><td style="font-weight:bold;vertical-align:top;">utcnow</td><td style="vertical-align:top;">:</td><td><div>datetime.datetime(2016, 2, 3, 10, 15, 56, 188000)</div></td></tr><tr><td style="font-weight:bold;vertical-align:top;">wsgi</td><td style="vertical-align:top;">:</td><td><div>&lt;gluon.main.LazyWSGI object at 0x08CE3390&gt;</div></td></tr></table></div>'
tRp58
sS'frames'
p59
(lp60
(dp61
S'file'
p62
S'C:\\Users\\Administrator\\Downloads\\web2py_win\\web2py\\gluon\\restricted.py'
p63
sS'dump'
p64
(dp65
S'environment'
p66
S"{'A': <class 'gluon.html.A'>, 'ANY_OF': <class 'gluon.validators.ANY_OF'>, 'ASSIGNJS': <function ASSIGNJS>, 'B': <class 'gluon.html.B'>, 'BEAUTIFY': <class 'gluon.html.BEAUTIFY'>, 'BODY': <class 'gluon.html.BODY'>, 'BR': <class 'gluon.html.BR'>, 'BUTTON': <class 'gluon.html.BUTTON'>, 'CAT': <class 'gluon.html.CAT'>, 'CENTER': <class 'gluon.html.CENTER'>, ...}"
p67
sS'ccode'
p68
S'<code object <module> at 092250F8, file "C:\\User...win\\web2py\\applications\\Inw\\models\\0.py", line 1>'
p69
ssS'lnum'
p70
I227
sS'lines'
p71
(dp72
I224
S'            ccode = code'
p73
sI225
S'        else:'
p74
sI226
S'            ccode = compile2(code, layer)'
p75
sI227
S'        exec ccode in environment'
p76
sI228
S'    except HTTP:'
p77
sI229
S'        raise'
p78
sI230
S'    except RestrictedError:'
p79
sI231
S'        # do not encapsulate (obfuscate) the original RestrictedError'
p80
sI222
S'    try:'
p81
sI223
S'        if isinstance(code, types.CodeType):'
p82
ssS'call'
p83
S'(code="from gluon.tools import Mail\\n# mail = Mail()\\nEMA...ct(URL(\'Sprzet\'))\\n#     return dict(forma=forma)\\n", environment={\'A\': <class \'gluon.html.A\'>, \'ANY_OF\': <class \'gluon.validators.ANY_OF\'>, \'ASSIGNJS\': <function ASSIGNJS>, \'B\': <class \'gluon.html.B\'>, \'BEAUTIFY\': <class \'gluon.html.BEAUTIFY\'>, \'BODY\': <class \'gluon.html.BODY\'>, \'BR\': <class \'gluon.html.BR\'>, \'BUTTON\': <class \'gluon.html.BUTTON\'>, \'CAT\': <class \'gluon.html.CAT\'>, \'CENTER\': <class \'gluon.html.CENTER\'>, ...}, layer=r\'C:\\Users\\Administrator\\Downloads\\web2py_win\\web2py\\applications\\Inw\\models\\0.py\')'
p84
sS'func'
p85
S'restricted'
p86
sa(dp87
g62
S'C:\\Users\\Administrator\\Downloads\\web2py_win\\web2py\\applications\\Inw\\models\\0.py'
p88
sg64
(dp89
S'EMAIL_SENDER'
p90
S'undefined'
p91
sS'Null'
p92
g91
ssg70
I4
sg71
(dp93
I2
S'# mail = Mail()'
p94
sI3
S"EMAIL_SERVER = 'smtp.vinci-energies.net'"
p95
sI4
S'EMAIL_SENDER = Null'
p96
sI5
S'EMAIL_LOGIN =  Null'
p97
sI6
S''
sI7
S'#Dzia\xc5\x82aj\xc4\x85ce !!!!!'
p98
sI8
S"# EMAIL_SERVER = 'smtp.gmail.com:587'"
p99
sI9
S"# EMAIL_SENDER = 'm.mlynarczyk87@gmail.com'"
p100
sI10
S"# EMAIL_LOGIN = 'm.mlynarczyk87@gmail.com:masterve2015'"
p101
sI11
S''
ssg83
S'()'
p102
sg85
S'<module>'
p103
sasS'pyver'
p104
S'Python 2.7.9: C:\\Users\\Administrator\\Downloads\\web2py_win\\web2py\\web2py.exe (prefix: C:\\Python27)'
p105
sS'session'
p106
g57
(S's\x1a\x00\x00\x00<div><table></table></div>'
tRp107
sS'etype'
p108
S"<type 'exceptions.NameError'>"
p109
sS'date'
p110
S'Wed Feb 03 11:15:56 2016'
p111
sS'response'
p112
g57
(S's%\x18\x00\x00<div><table><tr><td style="font-weight:bold;vertical-align:top;">body</td><td style="vertical-align:top;">:</td><td><div>&lt;cStringIO.StringO object at 0x08CE3E20&gt;</div></td></tr><tr><td style="font-weight:bold;vertical-align:top;">cookies</td><td style="vertical-align:top;">:</td><td><div><table><tr><td style="font-weight:bold;vertical-align:top;">session_id_inw</td><td style="vertical-align:top;">:</td><td><div>127.0.0.1-4ed78f6f-5e27-4b34-9b40-800ef98f9b79<table><tr><td style="font-weight:bold;vertical-align:top;">comment</td><td style="vertical-align:top;">:</td><td><div></div></td></tr><tr><td style="font-weight:bold;vertical-align:top;">domain</td><td style="vertical-align:top;">:</td><td><div></div></td></tr><tr><td style="font-weight:bold;vertical-align:top;">expires</td><td style="vertical-align:top;">:</td><td><div></div></td></tr><tr><td style="font-weight:bold;vertical-align:top;">httponly</td><td style="vertical-align:top;">:</td><td><div></div></td></tr><tr><td style="font-weight:bold;vertical-align:top;">max-age</td><td style="vertical-align:top;">:</td><td><div></div></td></tr><tr><td style="font-weight:bold;vertical-align:top;">path</td><td style="vertical-align:top;">:</td><td><div>/</div></td></tr><tr><td style="font-weight:bold;vertical-align:top;">secure</td><td style="vertical-align:top;">:</td><td><div></div></td></tr><tr><td style="font-weight:bold;vertical-align:top;">version</td><td style="vertical-align:top;">:</td><td><div></div></td></tr></table></div></td></tr></table></div></td></tr><tr><td style="font-weight:bold;vertical-align:top;">delimiters</td><td style="vertical-align:top;">:</td><td><div><table><tr><td><div>{{</div></td></tr><tr><td><div>}}</div></td></tr></table></div></td></tr><tr><td style="font-weight:bold;vertical-align:top;">files</td><td style="vertical-align:top;">:</td><td><div><table></table></div></td></tr><tr><td style="font-weight:bold;vertical-align:top;">flash</td><td style="vertical-align:top;">:</td><td><div></div></td></tr><tr><td style="font-weight:bold;vertical-align:top;">form_label_separator</td><td style="vertical-align:top;">:</td><td><div>: </div></td></tr><tr><td style="font-weight:bold;vertical-align:top;">formstyle</td><td style="vertical-align:top;">:</td><td><div>table3cols</div></td></tr><tr><td style="font-weight:bold;vertical-align:top;">generic_patterns</td><td style="vertical-align:top;">:</td><td><div><table><tr><td><div>*</div></td></tr></table></div></td></tr><tr><td style="font-weight:bold;vertical-align:top;">headers</td><td style="vertical-align:top;">:</td><td><div><table><tr><td style="font-weight:bold;vertical-align:top;">X-Powered-By</td><td style="vertical-align:top;">:</td><td><div>web2py</div></td></tr></table></div></td></tr><tr><td style="font-weight:bold;vertical-align:top;">menu</td><td style="vertical-align:top;">:</td><td><div><table></table></div></td></tr><tr><td style="font-weight:bold;vertical-align:top;">meta</td><td style="vertical-align:top;">:</td><td><div><table></table></div></td></tr><tr><td style="font-weight:bold;vertical-align:top;">models_to_run</td><td style="vertical-align:top;">:</td><td><div><table><tr><td><div>^\\w+\\.py$</div></td></tr><tr><td><div>^default/\\w+\\.py$</div></td></tr><tr><td><div>^default/EdycjaSprzet/\\w+\\.py$</div></td></tr></table></div></td></tr><tr><td style="font-weight:bold;vertical-align:top;">postprocessing</td><td style="vertical-align:top;">:</td><td><div><table></table></div></td></tr><tr><td style="font-weight:bold;vertical-align:top;">session_client</td><td style="vertical-align:top;">:</td><td><div>127.0.0.1</div></td></tr><tr><td style="font-weight:bold;vertical-align:top;">session_cookie_compression_level</td><td style="vertical-align:top;">:</td><td><div>None</div></td></tr><tr><td style="font-weight:bold;vertical-align:top;">session_cookie_expires</td><td style="vertical-align:top;">:</td><td><div>None</div></td></tr><tr><td style="font-weight:bold;vertical-align:top;">session_cookie_key</td><td style="vertical-align:top;">:</td><td><div>None</div></td></tr><tr><td style="font-weight:bold;vertical-align:top;">session_data_name</td><td style="vertical-align:top;">:</td><td><div>session_data_inw</div></td></tr><tr><td style="font-weight:bold;vertical-align:top;">session_file</td><td style="vertical-align:top;">:</td><td><div>&lt;open file &#x27;C:\\\\Users\\\\Administrator\\\\Downloads\\\\web2py_win\\\\web2py\\\\applications\\\\Inw\\\\sessions\\\\115\\\\0c1\\\\127.0.0.1-4ed78f6f-5e27-4b34-9b40-800ef98f9b79&#x27;, mode &#x27;rb+&#x27; at 0x0323B9C0&gt;</div></td></tr><tr><td style="font-weight:bold;vertical-align:top;">session_filename</td><td style="vertical-align:top;">:</td><td><div>C:\\Users\\Administrator\\Downloads\\web2py_win\\web2py\\applications\\Inw\\sessions\\127.0.0.1-4ed78f6f-5e27-4b34-9b40-800ef98f9b79</div></td></tr><tr><td style="font-weight:bold;vertical-align:top;">session_hash</td><td style="vertical-align:top;">:</td><td><div>2847d9b4564670aa446ab74d0ae55ea5</div></td></tr><tr><td style="font-weight:bold;vertical-align:top;">session_id</td><td style="vertical-align:top;">:</td><td><div>127.0.0.1-4ed78f6f-5e27-4b34-9b40-800ef98f9b79</div></td></tr><tr><td style="font-weight:bold;vertical-align:top;">session_id_name</td><td style="vertical-align:top;">:</td><td><div>session_id_inw</div></td></tr><tr><td style="font-weight:bold;vertical-align:top;">session_locked</td><td style="vertical-align:top;">:</td><td><div>True</div></td></tr><tr><td style="font-weight:bold;vertical-align:top;">session_masterapp</td><td style="vertical-align:top;">:</td><td><div>Inw</div></td></tr><tr><td style="font-weight:bold;vertical-align:top;">session_new</td><td style="vertical-align:top;">:</td><td><div>False</div></td></tr><tr><td style="font-weight:bold;vertical-align:top;">session_storage_type</td><td style="vertical-align:top;">:</td><td><div>file</div></td></tr><tr><td style="font-weight:bold;vertical-align:top;">status</td><td style="vertical-align:top;">:</td><td><div>200</div></td></tr><tr><td style="font-weight:bold;vertical-align:top;">view</td><td style="vertical-align:top;">:</td><td><div>default/EdycjaSprzet.html</div></td></tr></table></div>'
tRp113
sS'locals'
p114
(dp115
S'OBJECT'
p116
S"<class 'gluon.html.OBJECT'>"
p117
sS'SQLDB'
p118
S"<class 'pydal.base.DAL'>"
p119
sg106
S"<Storage {'_formkey[Dodaj_Sprzet/create]': ['22c...4b847', '1adfb167-cc22-4a2b-a414-7dcdef3a1d87']}>"
p120
sS'LINK'
p121
S"<class 'gluon.html.LINK'>"
p122
sS'BR'
p123
S"<class 'gluon.html.BR'>"
p124
sS'local_import'
p125
S'<function <lambda>>'
p126
sS'OPTGROUP'
p127
S"<class 'gluon.html.OPTGROUP'>"
p128
sS'__package__'
p129
S'None'
p130
sS'PRE'
p131
S"<class 'gluon.html.PRE'>"
p132
sS'IS_INT_IN_RANGE'
p133
S"<class 'gluon.validators.IS_INT_IN_RANGE'>"
p134
sS'IS_LOWER'
p135
S"<class 'gluon.validators.IS_LOWER'>"
p136
sS'IS_STRONG'
p137
S"<class 'gluon.validators.IS_STRONG'>"
p138
sS'cache'
p139
S'<gluon.cache.Cache object>'
p140
sS'IS_IN_DB'
p141
S"<class 'gluon.validators.IS_IN_DB'>"
p142
sS'TAG'
p143
S'<gluon.html.__TAG__ object>'
p144
sS'SQLField'
p145
S"<class 'pydal.objects.Field'>"
p146
sS'BODY'
p147
S"<class 'gluon.html.BODY'>"
p148
sS'IS_DATE_IN_RANGE'
p149
S"<class 'gluon.validators.IS_DATE_IN_RANGE'>"
p150
sS'IFRAME'
p151
S"<class 'gluon.html.IFRAME'>"
p152
sS'URL'
p153
S'<function URL>'
p154
sS'__file__'
p155
S"r'C:\\Users\\Administrator\\Downloads\\web2py_win\\web2py\\applications\\Inw\\models\\0.py'"
p156
sS'P'
S"<class 'gluon.html.P'>"
p157
sS'TFOOT'
p158
S"<class 'gluon.html.TFOOT'>"
p159
sS'XHTML'
p160
S"<class 'gluon.html.XHTML'>"
p161
sS'ON'
p162
S'True'
p163
sS'OL'
p164
S"<class 'gluon.html.OL'>"
p165
sS'TEXTAREA'
p166
S"<class 'gluon.html.TEXTAREA'>"
p167
sS'MENU'
p168
S"<class 'gluon.html.MENU'>"
p169
sS'LOAD'
p170
S'<function LOAD>'
p171
sS'CODE'
p172
S"<class 'gluon.html.CODE'>"
p173
sS'HTTP'
p174
S"<class 'gluon.http.HTTP'>"
p175
sS'HR'
p176
S"<class 'gluon.html.HR'>"
p177
sS'IS_DATETIME'
p178
S"<class 'gluon.validators.IS_DATETIME'>"
p179
sS'HEAD'
p180
S"<class 'gluon.html.HEAD'>"
p181
sS'LABEL'
p182
S"<class 'gluon.html.LABEL'>"
p183
sS'CLEANUP'
p184
S"<class 'gluon.validators.CLEANUP'>"
p185
sS'SELECT'
p186
S"<class 'gluon.html.SELECT'>"
p187
sS'CENTER'
p188
S"<class 'gluon.html.CENTER'>"
p189
sS'__builtins__'
p190
S"{'ArithmeticError': <type 'exceptions.ArithmeticError'>, 'AssertionError': <type 'exceptions.AssertionError'>, 'AttributeError': <type 'exceptions.AttributeError'>, 'BaseException': <type 'exceptions.BaseException'>, 'BufferError': <type 'exceptions.BufferError'>, 'BytesWarning': <type 'exceptions.BytesWarning'>, 'DeprecationWarning': <type 'exceptions.DeprecationWarning'>, 'EOFError': <type 'exceptions.EOFError'>, 'Ellipsis': Ellipsis, 'EnvironmentError': <type 'exceptions.EnvironmentError'>, ...}"
p191
sS'HTML'
p192
S"<class 'gluon.html.HTML'>"
p193
sS'SQLFORM'
p194
S"<class 'gluon.sqlhtml.SQLFORM'>"
p195
sS'EMAIL_SERVER'
p196
S"'smtp.vinci-energies.net'"
p197
sS'EM'
p198
S"<class 'gluon.html.EM'>"
p199
sS'redirect'
p200
S'<function redirect>'
p201
sS'FIELDSET'
p202
S"<class 'gluon.html.FIELDSET'>"
p203
sS'IS_EQUAL_TO'
p204
S"<class 'gluon.validators.IS_EQUAL_TO'>"
p205
sS'embed64'
p206
S'<function embed64>'
p207
sS'IS_LIST_OF'
p208
S"<class 'gluon.validators.IS_LIST_OF'>"
p209
sS'__name__'
p210
S"'__restricted__'"
p211
sS'EMBED'
p212
S"<class 'gluon.html.EMBED'>"
p213
sS'FORM'
p214
S"<class 'gluon.html.FORM'>"
p215
sS'H2'
p216
S"<class 'gluon.html.H2'>"
p217
sS'H3'
p218
S"<class 'gluon.html.H3'>"
p219
sS'BUTTON'
p220
S"<class 'gluon.html.BUTTON'>"
p221
sS'H1'
p222
S"<class 'gluon.html.H1'>"
p223
sS'H6'
p224
S"<class 'gluon.html.H6'>"
p225
sS'H4'
p226
S"<class 'gluon.html.H4'>"
p227
sS'H5'
p228
S"<class 'gluon.html.H5'>"
p229
sS'UL'
p230
S"<class 'gluon.html.UL'>"
p231
sS'IS_UPPER'
p232
S"<class 'gluon.validators.IS_UPPER'>"
p233
sS'xmlescape'
p234
S'<function xmlescape>'
p235
sS'IS_TIME'
p236
S"<class 'gluon.validators.IS_TIME'>"
p237
sS'OPTION'
p238
S"<class 'gluon.html.OPTION'>"
p239
sS'TITLE'
p240
S"<class 'gluon.html.TITLE'>"
p241
sS'CRYPT'
p242
S"<class 'gluon.validators.CRYPT'>"
p243
sS'IS_EMPTY_OR'
p244
S"<class 'gluon.validators.IS_EMPTY_OR'>"
p245
sS'MARKMIN'
p246
S"<class 'gluon.html.MARKMIN'>"
p247
sS'INPUT'
p248
S"<class 'gluon.html.INPUT'>"
p249
sS'STRONG'
p250
S"<class 'gluon.html.STRONG'>"
p251
sS'COL'
p252
S"<class 'gluon.html.COL'>"
p253
sS'SCRIPT'
p254
S"<class 'gluon.html.SCRIPT'>"
p255
sS'TABLE'
p256
S"<class 'gluon.html.TABLE'>"
p257
sS'IS_IPV4'
p258
S"<class 'gluon.validators.IS_IPV4'>"
p259
sS'IS_LENGTH'
p260
S"<class 'gluon.validators.IS_LENGTH'>"
p261
sS'IS_IPV6'
p262
S"<class 'gluon.validators.IS_IPV6'>"
p263
sS'XML'
p264
S"<class 'gluon.html.XML'>"
p265
sS'B'
S"<class 'gluon.html.B'>"
p266
sS'IMG'
p267
S"<class 'gluon.html.IMG'>"
p268
sS'SQLTABLE'
p269
S"<class 'gluon.sqlhtml.SQLTABLE'>"
p270
sS'IS_MATCH'
p271
S"<class 'gluon.validators.IS_MATCH'>"
p272
sS'IS_ALPHANUMERIC'
p273
S"<class 'gluon.validators.IS_ALPHANUMERIC'>"
p274
sS'SPAN'
p275
S"<class 'gluon.html.SPAN'>"
p276
sS'IS_JSON'
p277
S"<class 'gluon.validators.IS_JSON'>"
p278
sS'IS_IPADDRESS'
p279
S"<class 'gluon.validators.IS_IPADDRESS'>"
p280
sS'IS_SLUG'
p281
S"<class 'gluon.validators.IS_SLUG'>"
p282
sS'BEAUTIFY'
p283
S"<class 'gluon.html.BEAUTIFY'>"
p284
sS'META'
p285
S"<class 'gluon.html.META'>"
p286
sS'IS_DATE'
p287
S"<class 'gluon.validators.IS_DATE'>"
p288
sS'IS_EMAIL'
p289
S"<class 'gluon.validators.IS_EMAIL'>"
p290
sS'IS_NOT_EMPTY'
p291
S"<class 'gluon.validators.IS_NOT_EMPTY'>"
p292
sg56
S"<Storage {'_vars': None, 'function': 'EdycjaSprz...loads\\\\web2py_win\\\\web2py\\\\applications\\\\Inw\\\\'}>"
p293
sS'TBODY'
p294
S"<class 'gluon.html.TBODY'>"
p295
sS'CAT'
p296
S"<class 'gluon.html.CAT'>"
p297
sS'Field'
p298
S"<class 'pydal.objects.Field'>"
p299
sS'IS_LIST_OF_EMAILS'
p300
S"<class 'gluon.validators.IS_LIST_OF_EMAILS'>"
p301
sS'Mail'
p302
S"<class 'gluon.tools.Mail'>"
p303
sS'DIV'
p304
S"<class 'gluon.html.DIV'>"
p305
sS'LEGEND'
p306
S"<class 'gluon.html.LEGEND'>"
p307
sS'COLGROUP'
p308
S"<class 'gluon.html.COLGROUP'>"
p309
sS'DAL'
p310
S"<class 'pydal.base.DAL'>"
p311
sS'ASSIGNJS'
p312
S'<function ASSIGNJS>'
p313
sS'TR'
p314
S"<class 'gluon.html.TR'>"
p315
sS'LI'
p316
S"<class 'gluon.html.LI'>"
p317
sS'TH'
p318
S"<class 'gluon.html.TH'>"
p319
sS'TD'
p320
S"<class 'gluon.html.TD'>"
p321
sS'IS_URL'
p322
S"<class 'gluon.validators.IS_URL'>"
p323
sS'A'
S"<class 'gluon.html.A'>"
p324
sS'STYLE'
p325
S"<class 'gluon.html.STYLE'>"
p326
sS'IS_DATETIME_IN_RANGE'
p327
S"<class 'gluon.validators.IS_DATETIME_IN_RANGE'>"
p328
sS'IS_IMAGE'
p329
S"<class 'gluon.validators.IS_IMAGE'>"
p330
sS'I'
S"<class 'gluon.html.I'>"
p331
sS'IS_NOT_IN_DB'
p332
S"<class 'gluon.validators.IS_NOT_IN_DB'>"
p333
sg112
S"<Storage {'body': <cStringIO.StringO object at 0...x08F25070>, 'view': 'default/EdycjaSprzet.html'}>"
p334
sS'THEAD'
p335
S"<class 'gluon.html.THEAD'>"
p336
sS'ANY_OF'
p337
S"<class 'gluon.validators.ANY_OF'>"
p338
sS'IS_NULL_OR'
p339
S"<class 'gluon.validators.IS_EMPTY_OR'>"
p340
sS'IS_FLOAT_IN_RANGE'
p341
S"<class 'gluon.validators.IS_FLOAT_IN_RANGE'>"
p342
sS'IS_EXPR'
p343
S"<class 'gluon.validators.IS_EXPR'>"
p344
sS'IS_IN_SET'
p345
S"<class 'gluon.validators.IS_IN_SET'>"
p346
sS'IS_UPLOAD_FILENAME'
p347
S"<class 'gluon.validators.IS_UPLOAD_FILENAME'>"
p348
sS'IS_DECIMAL_IN_RANGE'
p349
S"<class 'gluon.validators.IS_DECIMAL_IN_RANGE'>"
p350
sS'TT'
p351
S"<class 'gluon.html.TT'>"
p352
sS'T'
S'<gluon.languages.translator object>'
p353
sssS'traceback'
p354
S'Traceback (most recent call last):\n  File "C:\\Users\\Administrator\\Downloads\\web2py_win\\web2py\\gluon\\restricted.py", line 227, in restricted\n    exec ccode in environment\n  File "C:\\Users\\Administrator\\Downloads\\web2py_win\\web2py\\applications\\Inw\\models\\0.py", line 4, in <module>\n    EMAIL_SENDER = Null\nNameError: name \'Null\' is not defined\n'
p355
s.